; Function Attrs: null_pointer_is_valid sspstrong uwtable
define internal fastcc void @submit_multi_resp(ptr noundef %0, ptr noundef %1, ptr noundef %2) unnamed_addr #0 {
  %4 = alloca i32, align 4
  %5 = load i32, ptr @hf_smpp_message_id, align 4
  %6 = tail call i32 @tvb_strsize(ptr noundef %1, i32 noundef 16)
  %7 = icmp ugt i32 %6, 1
  br i1 %7, label %8, label %smpp_handle_string.exit

8:                                                ; preds = %3
  %9 = tail call ptr @proto_tree_add_item(ptr noundef %0, i32 noundef %5, ptr noundef %1, i32 noundef 16, i32 noundef %6, i32 noundef 0)
  br label %smpp_handle_string.exit

smpp_handle_string.exit:                          ; preds = %3, %8
  %10 = add i32 %6, 16
  %11 = add i32 %6, 17
  %12 = tail call zeroext i8 @tvb_get_uint8(ptr noundef %1, i32 noundef %10)
  %.not.i = icmp eq i8 %12, 0
  br i1 %.not.i, label %smpp_handle_dlist_resp.exit, label %.lr.ph.preheader.i

.lr.ph.preheader.i:                               ; preds = %smpp_handle_string.exit
  %13 = load i32, ptr @hf_smpp_dlist_resp, align 4
  %14 = tail call ptr @proto_tree_add_item(ptr noundef %0, i32 noundef %13, ptr noundef %1, i32 noundef %10, i32 noundef 1, i32 noundef 0)
  %15 = load i32, ptr @ett_dlist_resp, align 4
  %16 = tail call ptr @proto_item_add_subtree(ptr noundef %14, i32 noundef %15)
  br label %.lr.ph.i

.lr.ph.i:                                         ; preds = %smpp_handle_string.exit.i, %.lr.ph.preheader.i
  %.028.i = phi i8 [ %17, %smpp_handle_string.exit.i ], [ %12, %.lr.ph.preheader.i ]
  %.02527.i = phi i32 [ %32, %smpp_handle_string.exit.i ], [ %11, %.lr.ph.preheader.i ]
  %17 = add i8 %.028.i, -1
  %18 = load i32, ptr @hf_smpp_dest_addr_ton, align 4
  %19 = tail call ptr @proto_tree_add_item(ptr noundef %16, i32 noundef %18, ptr noundef %1, i32 noundef %.02527.i, i32 noundef 1, i32 noundef 0)
  %20 = add i32 %.02527.i, 1
  %21 = load i32, ptr @hf_smpp_dest_addr_npi, align 4
  %22 = tail call ptr @proto_tree_add_item(ptr noundef %16, i32 noundef %21, ptr noundef %1, i32 noundef %20, i32 noundef 1, i32 noundef 0)
  %23 = add i32 %.02527.i, 2
  %24 = load i32, ptr @hf_smpp_destination_addr, align 4
  %25 = tail call i32 @tvb_strsize(ptr noundef %1, i32 noundef %23)
  %26 = icmp ugt i32 %25, 1
  br i1 %26, label %27, label %smpp_handle_string.exit.i

27:                                               ; preds = %.lr.ph.i
  %28 = tail call ptr @proto_tree_add_item(ptr noundef %16, i32 noundef %24, ptr noundef %1, i32 noundef %23, i32 noundef %25, i32 noundef 0)
  br label %smpp_handle_string.exit.i

smpp_handle_string.exit.i:                        ; preds = %27, %.lr.ph.i
  %29 = add i32 %25, %23
  %30 = load i32, ptr @hf_smpp_error_status_code, align 4
  %31 = tail call ptr @proto_tree_add_item(ptr noundef %16, i32 noundef %30, ptr noundef %1, i32 noundef %29, i32 noundef 4, i32 noundef 0)
  %32 = add i32 %29, 4
  %.not16.i = icmp eq i8 %17, 0
  br i1 %.not16.i, label %smpp_handle_dlist_resp.exit, label %.lr.ph.i, !llvm.loop !10

smpp_handle_dlist_resp.exit:                      ; preds = %smpp_handle_string.exit.i, %smpp_handle_string.exit
  %.025.lcssa.i = phi i32 [ %11, %smpp_handle_string.exit ], [ %32, %smpp_handle_string.exit.i ]
  store i32 %.025.lcssa.i, ptr %4, align 4
  call fastcc void @smpp_handle_tlv(ptr noundef %0, ptr noundef %1, ptr noundef %2, ptr noundef nonnull %4, ptr noundef null)
  ret void
}